; Function Attrs: mustprogress uwtable
define void @_ZN6casadi16GetNonzerosParamC2ERKNS_8SparsityERKNS_2MXES6_(ptr noundef nonnull align 8 dereferenceable(64) %0, ptr noundef nonnull align 8 dereferenceable(8) %1, ptr noundef nonnull align 8 dereferenceable(8) %2, ptr noundef nonnull align 8 dereferenceable(8) %3) unnamed_addr #3 align 2 personality ptr @__gxx_personality_v0 {
  tail call void @_ZN6casadi6MXNodeC2Ev(ptr noundef nonnull align 8 dereferenceable(64) %0)
  store ptr getelementptr inbounds ({ [108 x ptr] }, ptr @_ZTVN6casadi16GetNonzerosParamE, i64 0, i32 0, i64 2), ptr %0, align 8
  invoke void @_ZN6casadi6MXNode12set_sparsityERKNS_8SparsityE(ptr noundef nonnull align 8 dereferenceable(64) %0, ptr noundef nonnull align 8 dereferenceable(8) %1)
          to label %5 unwind label %7

5:                                                ; preds = %4
  invoke void @_ZN6casadi6MXNode7set_depERKNS_2MXES3_(ptr noundef nonnull align 8 dereferenceable(64) %0, ptr noundef nonnull align 8 dereferenceable(8) %2, ptr noundef nonnull align 8 dereferenceable(8) %3)
          to label %6 unwind label %7

6:                                                ; preds = %5
  ret void

7:                                                ; preds = %5, %4
  %8 = landingpad { ptr, i32 }
          cleanup
  tail call void @_ZN6casadi6MXNodeD2Ev(ptr noundef nonnull align 8 dereferenceable(64) %0) #18
  resume { ptr, i32 } %8
}